; Function Attrs: mustprogress null_pointer_is_valid sspstrong uwtable
define void @_ZN9ProtoTree11setRootNodeEP11_proto_node(ptr noundef align 8 dereferenceable_or_null(208) %0, ptr noundef %1) local_unnamed_addr #0 align 2 personality ptr @__gxx_personality_v0 {
  %3 = alloca { i64, i64 }, align 8
  %4 = alloca { i64, i64 }, align 8
  %5 = alloca { i64, i64 }, align 8
  %6 = alloca { i64, i64 }, align 8
  %7 = alloca %class.QModelIndex, align 8
  %8 = alloca %"class.QMetaObject::Connection", align 8
  %9 = getelementptr inbounds nuw i8, ptr %0, i64 40
  %10 = load ptr, ptr %9, align 8
  tail call void @_ZN14ProtoTreeModel11setRootNodeEP11_proto_node(ptr noundef align 8 dereferenceable_or_null(24) %10, ptr noundef %1)
  call void @llvm.lifetime.start.p0(i64 16, ptr nonnull %5)
  call void @llvm.lifetime.start.p0(i64 16, ptr nonnull %6)
  store i64 ptrtoint (ptr @_ZN9QTreeView8expandedERK11QModelIndex to i64), ptr %5, align 8
  %.fca.1.gep4.i = getelementptr inbounds nuw i8, ptr %5, i64 8
  store i64 0, ptr %.fca.1.gep4.i, align 8
  store i64 ptrtoint (ptr @_ZN9ProtoTree12syncExpandedERK11QModelIndex to i64), ptr %6, align 8
  %.fca.1.gep.i = getelementptr inbounds nuw i8, ptr %6, i64 8
  store i64 0, ptr %.fca.1.gep.i, align 8
  %11 = call noundef zeroext i1 @_ZN7QObject14disconnectImplEPKS_PPvS1_S3_PK11QMetaObject(ptr noundef %0, ptr noundef nonnull %5, ptr noundef %0, ptr noundef nonnull %6, ptr noundef nonnull @_ZN9QTreeView16staticMetaObjectE)
  call void @llvm.lifetime.end.p0(i64 16, ptr nonnull %5)
  call void @llvm.lifetime.end.p0(i64 16, ptr nonnull %6)
  call void @proto_tree_children_foreach(ptr noundef %1, ptr noundef nonnull @_ZN9ProtoTree15foreachTreeNodeEP11_proto_nodePv, ptr noundef %0)
  call void @llvm.lifetime.start.p0(i64 24, ptr nonnull %7) #21
  store i32 -1, ptr %7, align 8
  %12 = getelementptr inbounds nuw i8, ptr %7, i64 4
  store i32 -1, ptr %12, align 4
  %13 = getelementptr inbounds nuw i8, ptr %7, i64 8
  call void @llvm.memset.p0.i64(ptr noundef nonnull align 8 dereferenceable(16) %13, i8 0, i64 16, i1 false)
  call void @_ZN9ProtoTree13foreachExpandERK11QModelIndex(ptr noundef align 8 dereferenceable_or_null(208) %0, ptr noundef nonnull align 8 dereferenceable(24) %7)
  call void @llvm.lifetime.end.p0(i64 24, ptr nonnull %7) #21
  call void @llvm.lifetime.start.p0(i64 16, ptr nonnull %3)
  call void @llvm.lifetime.start.p0(i64 16, ptr nonnull %4)
  store i64 ptrtoint (ptr @_ZN9QTreeView8expandedERK11QModelIndex to i64), ptr %3, align 8, !noalias !111
  %.fca.1.gep14.i = getelementptr inbounds nuw i8, ptr %3, i64 8
  store i64 0, ptr %.fca.1.gep14.i, align 8, !noalias !111
  store i64 ptrtoint (ptr @_ZN9ProtoTree12syncExpandedERK11QModelIndex to i64), ptr %4, align 8, !noalias !111
  %.fca.1.gep.i13 = getelementptr inbounds nuw i8, ptr %4, i64 8
  store i64 0, ptr %.fca.1.gep.i13, align 8, !noalias !111
  %14 = call noalias noundef dereferenceable_or_null(32) ptr @_Znwm(i64 noundef 32) #20, !noalias !111
  store i32 1, ptr %14, align 4, !noalias !111
  %15 = getelementptr inbounds nuw i8, ptr %14, i64 8
  store ptr @_ZN9QtPrivate11QSlotObjectIM9ProtoTreeFvRK11QModelIndexENS_4ListIJS4_EEEvE4implEiPNS_15QSlotObjectBaseEP7QObjectPPvPb, ptr %15, align 8, !noalias !111
  %16 = getelementptr inbounds nuw i8, ptr %14, i64 16
  store i64 ptrtoint (ptr @_ZN9ProtoTree12syncExpandedERK11QModelIndex to i64), ptr %16, align 8, !noalias !111
  %.repack7.i.i = getelementptr inbounds nuw i8, ptr %14, i64 24
  store i64 0, ptr %.repack7.i.i, align 8, !noalias !111
  call void @_ZN7QObject11connectImplEPKS_PPvS1_S3_PN9QtPrivate15QSlotObjectBaseEN2Qt14ConnectionTypeEPKiPK11QMetaObject(ptr dead_on_unwind nonnull writable sret(%"class.QMetaObject::Connection") align 8 %8, ptr noundef %0, ptr noundef nonnull %3, ptr noundef %0, ptr noundef nonnull %4, ptr noundef %14, i32 noundef 0, ptr noundef null, ptr noundef nonnull @_ZN9QTreeView16staticMetaObjectE)
  call void @llvm.lifetime.end.p0(i64 16, ptr nonnull %3)
  call void @llvm.lifetime.end.p0(i64 16, ptr nonnull %4)
  call void @_ZN11QMetaObject10ConnectionD1Ev(ptr noundef nonnull align 8 dereferenceable_or_null(8) %8) #21
  %17 = getelementptr inbounds nuw i8, ptr %0, i64 152
  %18 = load i32, ptr %17, align 8
  %19 = icmp eq i32 %18, 0
  br i1 %19, label %20, label %_ZN9ProtoTree18updateContentWidthEv.exit

20:                                               ; preds = %2
  %21 = call noundef i32 @_ZN7QObject10startTimerEiN2Qt9TimerTypeE(ptr noundef align 8 dereferenceable_or_null(208) %0, i32 noundef 0, i32 noundef 1)
  store i32 %21, ptr %17, align 8
  br label %_ZN9ProtoTree18updateContentWidthEv.exit

_ZN9ProtoTree18updateContentWidthEv.exit:         ; preds = %2, %20
  ret void
}